; Function Attrs: mustprogress nounwind willreturn uwtable
define void @ARKodeSPRKTable_Free(ptr noundef captures(address_is_null) %0) local_unnamed_addr #4 {
  %.not = icmp eq ptr %0, null
  br i1 %.not, label %11, label %2

2:                                                ; preds = %1
  %3 = getelementptr inbounds nuw i8, ptr %0, i64 16
  %4 = load ptr, ptr %3, align 8, !tbaa !3
  %.not8 = icmp eq ptr %4, null
  br i1 %.not8, label %6, label %5

5:                                                ; preds = %2
  tail call void @free(ptr noundef nonnull %4) #14
  br label %6

6:                                                ; preds = %5, %2
  %7 = getelementptr inbounds nuw i8, ptr %0, i64 8
  %8 = load ptr, ptr %7, align 8, !tbaa !10
  %.not9 = icmp eq ptr %8, null
  br i1 %.not9, label %10, label %9

9:                                                ; preds = %6
  tail call void @free(ptr noundef nonnull %8) #14
  br label %10

10:                                               ; preds = %9, %6
  tail call void @free(ptr noundef nonnull %0) #14
  br label %11

11:                                               ; preds = %10, %1
  ret void
}